; Function Attrs: mustprogress uwtable
define noundef i64 @_ZN10VertexData11CornerIndexEPK7OctNodeI12TreeNodeDataEii(ptr nocapture noundef readonly %0, i32 noundef %1, i32 noundef %2) local_unnamed_addr #9 align 2 {
  %4 = alloca [3 x i32], align 4
  %5 = alloca [3 x i32], align 4
  %6 = alloca [3 x i32], align 4
  call void @llvm.lifetime.start.p0(i64 12, ptr nonnull %4)
  call void @llvm.lifetime.start.p0(i64 12, ptr nonnull %5)
  %7 = getelementptr inbounds i8, ptr %4, i64 4
  %8 = getelementptr inbounds i8, ptr %4, i64 8
  call void @_ZN4Cube17FactorCornerIndexEiRiS0_S0_(i32 noundef %1, ptr noundef nonnull align 4 dereferenceable(4) %4, ptr noundef nonnull align 4 dereferenceable(4) %7, ptr noundef nonnull align 4 dereferenceable(4) %8)
  %9 = load i64, ptr %0, align 8
  %10 = trunc i64 %9 to i32
  %11 = and i32 %10, 31
  %12 = lshr i32 %10, 5
  %13 = and i32 %12, 524287
  store i32 %13, ptr %5, align 4
  %14 = lshr i64 %9, 24
  %15 = trunc i64 %14 to i32
  %16 = and i32 %15, 524287
  %17 = getelementptr inbounds i8, ptr %5, i64 4
  store i32 %16, ptr %17, align 4
  %18 = lshr i64 %9, 43
  %19 = trunc i64 %18 to i32
  %20 = and i32 %19, 524287
  %21 = getelementptr inbounds i8, ptr %5, i64 8
  store i32 %20, ptr %21, align 4
  %22 = add nsw i32 %2, 1
  %23 = sub i32 %22, %11
  br label %24

24:                                               ; preds = %24, %3
  %indvars.iv.i = phi i64 [ 0, %3 ], [ %indvars.iv.next.i, %24 ]
  %25 = getelementptr inbounds [3 x i32], ptr %5, i64 0, i64 %indvars.iv.i
  %26 = load i32, ptr %25, align 4
  %27 = getelementptr inbounds [3 x i32], ptr %4, i64 0, i64 %indvars.iv.i
  %28 = load i32, ptr %27, align 4
  %29 = add nsw i32 %28, %26
  %30 = shl i32 %29, %23
  %31 = getelementptr inbounds i32, ptr %6, i64 %indvars.iv.i
  store i32 %30, ptr %31, align 4
  %indvars.iv.next.i = add nuw nsw i64 %indvars.iv.i, 1
  %exitcond.not.i = icmp eq i64 %indvars.iv.next.i, 3
  br i1 %exitcond.not.i, label %_ZN10VertexData11CornerIndexEPK7OctNodeI12TreeNodeDataEiiPi.exit, label %24, !llvm.loop !12

_ZN10VertexData11CornerIndexEPK7OctNodeI12TreeNodeDataEiiPi.exit: ; preds = %24
  %32 = load i32, ptr %6, align 4
  %33 = sext i32 %32 to i64
  %34 = getelementptr inbounds i8, ptr %6, i64 4
  %35 = load i32, ptr %34, align 4
  %36 = sext i32 %35 to i64
  %37 = shl nsw i64 %36, 21
  %38 = or i64 %37, %33
  %39 = getelementptr inbounds i8, ptr %6, i64 8
  %40 = load i32, ptr %39, align 4
  %41 = zext i32 %40 to i64
  %42 = shl i64 %41, 42
  %43 = or i64 %38, %42
  call void @llvm.lifetime.end.p0(i64 12, ptr nonnull %4)
  call void @llvm.lifetime.end.p0(i64 12, ptr nonnull %5)
  ret i64 %43
}